((lp0
(lp1
F0.5117180105545792
aF0.4565066667283094
aF0.3088988508890458
aF0.8281143453557931
aa(lp2
F0.28367336621799466
aF0.043132251171157154
aF0.5817328028631282
aF0.0823509778473539
aa(lp3
F0.009939151528982393
aF0.7449193335267985
aF0.4285953054895927
aF0.25218583264486405
aa(lp4
(lp5
F0.8376324092829193
aF0.9208700857878297
aF0.7450858251847386
aF0.903875789588227
aag5
ag5
a(lp6
(lp7
F0.17464822321715912
aF0.04879125759247016
aF0.9267002003344484
aF0.27403576724146095
aa(lp8
F0.8686283503770208
aF0.4845499179309133
aF0.37879500821653533
aF0.46570304447930133
aa(lp9
F0.35879475587693055
aF0.6154967658059198
aF0.24903792523164592
aF0.6150755303851465
aatp10
.