ccopy_reg
_reconstructor
p0
(cpandas.core.frame
DataFrame
p1
c__builtin__
object
p2
Ntp3
Rp4
(dp5
S'_metadata'
p6
(lp7
sS'_typ'
p8
S'dataframe'
p9
sS'_data'
p10
g0
(cpandas.core.internals.managers
BlockManager
p11
g2
Ntp12
Rp13
((lp14
cpandas.core.indexes.base
_new_Index
p15
(cpandas.core.indexes.base
Index
p16
(dp17
S'data'
p18
cnumpy.core.multiarray
_reconstruct
p19
(cnumpy
ndarray
p20
(I0
tp21
S'b'
p22
tp23
Rp24
(I1
(L9L
tp25
cnumpy
dtype
p26
(S'O8'
p27
I0
I1
tp28
Rp29
(I3
S'|'
p30
NNNI-1
I-1
I63
tp31
bI00
(lp32
S'1.nx'
p33
aS'2.ny'
p34
aS'3.d'
p35
aS'4.total iterations[MDF]'
p36
aS'5.total time[MDF]'
p37
aS'6.final_objective[MDF]'
p38
aS'7.str_count[MDF]'
p39
aS'8.aer_count[MDF]'
p40
aS'9.pro_count[MDF]'
p41
atp42
bsS'name'
p43
Nstp44
Rp45
ag15
(cpandas.core.indexes.numeric
Int64Index
p46
(dp47
g18
g19
(g20
(I0
tp48
g22
tp49
Rp50
(I1
(L3L
tp51
g26
(S'i8'
p52
I0
I1
tp53
Rp54
(I3
S'<'
p55
NNNI-1
I-1
I0
tp56
bI00
S'\x00\x00\x00\x00\x00\x00\x00\x00\x00\x00\x00\x00\x00\x00\x00\x00\x00\x00\x00\x00\x00\x00\x00\x00'
p57
tp58
bsg43
Nstp59
Rp60
a(lp61
g19
(g20
(I0
tp62
g22
tp63
Rp64
(I1
(L2L
L3L
tp65
g54
I00
S'\x04\x00\x00\x00\x00\x00\x00\x00\x04\x00\x00\x00\x00\x00\x00\x00\x04\x00\x00\x00\x00\x00\x00\x00\x04\x00\x00\x00\x00\x00\x00\x00\x04\x00\x00\x00\x00\x00\x00\x00\x04\x00\x00\x00\x00\x00\x00\x00'
p66
tp67
bag19
(g20
(I0
tp68
g22
tp69
Rp70
(I1
(L1L
L3L
tp71
g26
(S'O8'
p72
I0
I1
tp73
Rp74
(I3
S'|'
p75
NNNI-1
I-1
I63
tp76
bI00
(lp77
(F0.5
F0.5
F0.5
F0.5
tp78
a(F0.3
F0.6
F0.7
F0.8
tp79
a(F0.3
F0.6
F0.7
F0.8
tp80
atp81
bag19
(g20
(I0
tp82
g22
tp83
Rp84
(I1
(L1L
L3L
tp85
g54
I00
S'\x07\x00\x00\x00\x00\x00\x00\x00\n\x00\x00\x00\x00\x00\x00\x00\x08\x00\x00\x00\x00\x00\x00\x00'
p86
tp87
bag19
(g20
(I0
tp88
g22
tp89
Rp90
(I1
(L5L
L3L
tp91
g26
(S'f8'
p92
I0
I1
tp93
Rp94
(I3
S'<'
p95
NNNI-1
I-1
I0
tp96
bI00
S'\x00\x00\x00<\xdf/E@\x00\x00\x00\xcf\xf7\x83Q@\x00\x00\x00$\x06\xf1M@\xf2\xe0\xbc\xd8\xec\xa0$\xc0 \x85\xf7>\xfay#\xc0\t\xe6\x89^\x90(#\xc0\x00\x00\x00\x00\x00\xec\x98@\x00\x00\x00\x00\x00\x84\xa2@\x00\x00\x00\x00\x00P\x99@\x00\x00\x00\x00\x00\xec\x98@\x00\x00\x00\x00\x00\x84\xa2@\x00\x00\x00\x00\x00P\x99@\x00\x00\x00\x00\x00\\\x97@\x00\x00\x00\x00\x00D\xa1@\x00\x00\x00\x00\x00p\x97@'
p97
tp98
ba(lp99
g15
(g16
(dp100
g18
g19
(g20
(I0
tp101
g22
tp102
Rp103
(I1
(L2L
tp104
g29
I00
(lp105
g33
ag34
atp106
bsg43
Nstp107
Rp108
ag15
(g16
(dp109
g18
g19
(g20
(I0
tp110
g22
tp111
Rp112
(I1
(L1L
tp113
g29
I00
(lp114
g35
atp115
bsg43
Nstp116
Rp117
ag15
(g16
(dp118
g18
g19
(g20
(I0
tp119
g22
tp120
Rp121
(I1
(L1L
tp122
g29
I00
(lp123
g36
atp124
bsg43
Nstp125
Rp126
ag15
(g16
(dp127
g18
g19
(g20
(I0
tp128
g22
tp129
Rp130
(I1
(L5L
tp131
g29
I00
(lp132
g37
ag38
ag39
ag40
ag41
atp133
bsg43
Nstp134
Rp135
a(dp136
S'0.14.1'
p137
(dp138
S'axes'
p139
g14
sS'blocks'
p140
(lp141
(dp142
S'mgr_locs'
p143
c__builtin__
slice
p144
(I0
I2
I1
tp145
Rp146
sS'values'
p147
g64
sa(dp148
g143
g144
(I2
I3
I1
tp149
Rp150
sg147
g70
sa(dp151
g143
g144
(I3
I4
I1
tp152
Rp153
sg147
g84
sa(dp154
g143
g144
(I4
I9
I1
tp155
Rp156
sg147
g90
sasstp157
bsb.