(lp0
cnumpy.core.multiarray
_reconstruct
p1
(cnumpy
ndarray
p2
(I0
tp3
S'b'
p4
tp5
Rp6
(I1
(I1
tp7
cnumpy
dtype
p8
(S'f8'
p9
I0
I1
tp10
Rp11
(I3
S'<'
p12
NNNI-1
I-1
I0
tp13
bI00
S'@\x13q\xe3\x03K.\xc0'
p14
tp15
bag1
(g2
(I0
tp16
g4
tp17
Rp18
(I1
(I1
tp19
g11
I00
S'@\x13q\xe3\x03K.\xc0'
p20
tp21
bag1
(g2
(I0
tp22
g4
tp23
Rp24
(I1
(I1
tp25
g11
I00
S'Ae\x1d\xe8+\xaf/\xc0'
p26
tp27
bag1
(g2
(I0
tp28
g4
tp29
Rp30
(I1
(I1
tp31
g11
I00
S'\xd2\xcfhB\x9b./\xc0'
p32
tp33
bag1
(g2
(I0
tp34
g4
tp35
Rp36
(I1
(I1
tp37
g11
I00
S'j\xef\xec3\x80\xd1.\xc0'
p38
tp39
bag1
(g2
(I0
tp40
g4
tp41
Rp42
(I1
(I1
tp43
g11
I00
S'G\x9f\xaeD\xc1\x10/\xc0'
p44
tp45
bag1
(g2
(I0
tp46
g4
tp47
Rp48
(I1
(I1
tp49
g11
I00
S'f\xc9K\x06\xe4\x88.\xc0'
p50
tp51
bag1
(g2
(I0
tp52
g4
tp53
Rp54
(I1
(I1
tp55
g11
I00
S'f\xa6T\xa8b\xf0.\xc0'
p56
tp57
bag1
(g2
(I0
tp58
g4
tp59
Rp60
(I1
(I1
tp61
g11
I00
S'\xc0\x83s\xde\xf2f.\xc0'
p62
tp63
bag1
(g2
(I0
tp64
g4
tp65
Rp66
(I1
(I1
tp67
g11
I00
S'QN3\x0c?\xdd.\xc0'
p68
tp69
bag1
(g2
(I0
tp70
g4
tp71
Rp72
(I1
(I1
tp73
g11
I00
S'4MD\xc6\xafY.\xc0'
p74
tp75
bag1
(g2
(I0
tp76
g4
tp77
Rp78
(I1
(I1
tp79
g11
I00
S'8 \x8e;\x91\x0b.\xc0'
p80
tp81
bag1
(g2
(I0
tp82
g4
tp83
Rp84
(I1
(I1
tp85
g11
I00
S'\x02C\xeb\xde\x86O.\xc0'
p86
tp87
bag1
(g2
(I0
tp88
g4
tp89
Rp90
(I1
(I1
tp91
g11
I00
S'\xf1\xea\x11\xda\xfc\x05.\xc0'
p92
tp93
bag1
(g2
(I0
tp94
g4
tp95
Rp96
(I1
(I1
tp97
g11
I00
S'^\x1e\xf0\xbfA9.\xc0'
p98
tp99
bag1
(g2
(I0
tp100
g4
tp101
Rp102
(I1
(I1
tp103
g11
I00
S'\x96\xa2\x08\xec\t\x95-\xc0'
p104
tp105
bag1
(g2
(I0
tp106
g4
tp107
Rp108
(I1
(I1
tp109
g11
I00
S'\x05,\xfd\xa1\x855.\xc0'
p110
tp111
bag1
(g2
(I0
tp112
g4
tp113
Rp114
(I1
(I1
tp115
g11
I00
S'\xab\x1d\x93\xccu\xf6-\xc0'
p116
tp117
bag1
(g2
(I0
tp118
g4
tp119
Rp120
(I1
(I1
tp121
g11
I00
S'\x9efU\xcf\x17-.\xc0'
p122
tp123
bag1
(g2
(I0
tp124
g4
tp125
Rp126
(I1
(I1
tp127
g11
I00
S'\x19\xf9\x7f\x99\x88\xf4-\xc0'
p128
tp129
bag1
(g2
(I0
tp130
g4
tp131
Rp132
(I1
(I1
tp133
g11
I00
S"HG\x0e\x8a\xc1'.\xc0"
p134
tp135
bag1
(g2
(I0
tp136
g4
tp137
Rp138
(I1
(I1
tp139
g11
I00
S'e\xed\xe5\x18\xfc\xee-\xc0'
p140
tp141
bag1
(g2
(I0
tp142
g4
tp143
Rp144
(I1
(I1
tp145
g11
I00
S'j\xd0R\xac\xfe\t.\xc0'
p146
tp147
bag1
(g2
(I0
tp148
g4
tp149
Rp150
(I1
(I1
tp151
g11
I00
S'\xcd\xffG\xc0\x01\xe4-\xc0'
p152
tp153
bag1
(g2
(I0
tp154
g4
tp155
Rp156
(I1
(I1
tp157
g11
I00
S'\x88\x9c=\x87\xac\xfe-\xc0'
p158
tp159
bag1
(g2
(I0
tp160
g4
tp161
Rp162
(I1
(I1
tp163
g11
I00
S'\x81hp)c\xdc-\xc0'
p164
tp165
bag1
(g2
(I0
tp166
g4
tp167
Rp168
(I1
(I1
tp169
g11
I00
S'\xcee\xe5\x826\xce-\xc0'
p170
tp171
bag1
(g2
(I0
tp172
g4
tp173
Rp174
(I1
(I1
tp175
g11
I00
S'0t\xbd\xff\xce\xda-\xc0'
p176
tp177
bag1
(g2
(I0
tp178
g4
tp179
Rp180
(I1
(I1
tp181
g11
I00
S'\xa1\xae\x81\xa9Z\xcc-\xc0'
p182
tp183
bag1
(g2
(I0
tp184
g4
tp185
Rp186
(I1
(I1
tp187
g11
I00
S'\x85\x00\x9e\xea\xe5\xd3-\xc0'
p188
tp189
bag1
(g2
(I0
tp190
g4
tp191
Rp192
(I1
(I1
tp193
g11
I00
S'\x0e\x95\x91\x03\x05\xc8-\xc0'
p194
tp195
bag1
(g2
(I0
tp196
g4
tp197
Rp198
(I1
(I1
tp199
g11
I00
S'\t\xa9\x80\x18z\xc2-\xc0'
p200
tp201
bag1
(g2
(I0
tp202
g4
tp203
Rp204
(I1
(I1
tp205
g11
I00
S'\xc8/\x97\xd2\xd2\xbf-\xc0'
p206
tp207
bag1
(g2
(I0
tp208
g4
tp209
Rp210
(I1
(I1
tp211
g11
I00
S"HS\xf8'\xb0\xbe-\xc0"
p212
tp213
bag1
(g2
(I0
tp214
g4
tp215
Rp216
(I1
(I1
tp217
g11
I00
S'\xbeeEj;\xbe-\xc0'
p218
tp219
ba.