(lp0
cnumpy.core.multiarray
_reconstruct
p1
(cnumpy
ndarray
p2
(I0
tp3
S'b'
p4
tp5
Rp6
(I1
(L1L
tp7
cnumpy
dtype
p8
(S'f8'
p9
I0
I1
tp10
Rp11
(I3
S'<'
p12
NNNI-1
I-1
I0
tp13
bI00
S'\xe8.\xf1\xea0ZC\xc0'
p14
tp15
bag1
(g2
(I0
tp16
g4
tp17
Rp18
(I1
(L1L
tp19
g11
I00
S'\xf4<\xf1\xea0ZC\xc0'
p20
tp21
bag1
(g2
(I0
tp22
g4
tp23
Rp24
(I1
(L1L
tp25
g11
I00
S'\xf8\x9aO\xc2\xb3\xc4@\xc0'
p26
tp27
bag1
(g2
(I0
tp28
g4
tp29
Rp30
(I1
(L1L
tp31
g11
I00
S'\x86-\xa4\xe4R\xd6B\xc0'
p32
tp33
bag1
(g2
(I0
tp34
g4
tp35
Rp36
(I1
(L1L
tp37
g11
I00
S'\x9a\xca\xfcfn\x8fA\xc0'
p38
tp39
bag1
(g2
(I0
tp40
g4
tp41
Rp42
(I1
(L1L
tp43
g11
I00
S'\x03\x12\xfec2\xbbA\xc0'
p44
tp45
bag1
(g2
(I0
tp46
g4
tp47
Rp48
(I1
(L1L
tp49
g11
I00
S'L@\xaa\xf8\xd6\x95A\xc0'
p50
tp51
bag1
(g2
(I0
tp52
g4
tp53
Rp54
(I1
(L1L
tp55
g11
I00
S'\xfd|f\xdc\xd2\xb9A\xc0'
p56
tp57
bag1
(g2
(I0
tp58
g4
tp59
Rp60
(I1
(L1L
tp61
g11
I00
S'\x0e\x10\xd4&L\xacA\xc0'
p62
tp63
bag1
(g2
(I0
tp64
g4
tp65
Rp66
(I1
(L1L
tp67
g11
I00
S'\xa4\x0bL]%\xa5A\xc0'
p68
tp69
bag1
(g2
(I0
tp70
g4
tp71
Rp72
(I1
(L1L
tp73
g11
I00
S'\xad\xc1N%U\xadA\xc0'
p74
tp75
bag1
(g2
(I0
tp76
g4
tp77
Rp78
(I1
(L1L
tp79
g11
I00
S'F\x9d\xfd\x9d?\xacA\xc0'
p80
tp81
bag1
(g2
(I0
tp82
g4
tp83
Rp84
(I1
(L1L
tp85
g11
I00
S'N\xab\x05<\x80\xafA\xc0'
p86
tp87
bag1
(g2
(I0
tp88
g4
tp89
Rp90
(I1
(L1L
tp91
g11
I00
S'O\xd0_\xb6\x14\xb4A\xc0'
p92
tp93
bag1
(g2
(I0
tp94
g4
tp95
Rp96
(I1
(L1L
tp97
g11
I00
S'u\x0e\xd4o\r\xb6A\xc0'
p98
tp99
bag1
(g2
(I0
tp100
g4
tp101
Rp102
(I1
(L1L
tp103
g11
I00
S'\x8bE\xf3\x19\x97\xb9A\xc0'
p104
tp105
bag1
(g2
(I0
tp106
g4
tp107
Rp108
(I1
(L1L
tp109
g11
I00
S"\x0c\xe6|'\xe9\xb7A\xc0"
p110
tp111
bag1
(g2
(I0
tp112
g4
tp113
Rp114
(I1
(L1L
tp115
g11
I00
S'\x1e\x18i\x8f\xfb\xb6A\xc0'
p116
tp117
bag1
(g2
(I0
tp118
g4
tp119
Rp120
(I1
(L1L
tp121
g11
I00
S'B6\x90P4\xb7A\xc0'
p122
tp123
bag1
(g2
(I0
tp124
g4
tp125
Rp126
(I1
(L1L
tp127
g11
I00
S'\xbd\xb9\xa1E\x0e\xb7A\xc0'
p128
tp129
ba.