((lp0
(lp1
F0.9244999018100204
aF0.5152236055887924
aF0.410924091151353
aF0.7086467286180881
aa(lp2
F0.014694938275375269
aF0.7272486298337592
aF0.40272276239226223
aF0.09813450272632329
aa(lp3
F0.08024078998176365
aF0.050785697158962195
aF0.1752163867330634
aF0.48446190675745504
aa(lp4
(lp5
F0.2638134821807585
aF0.4227977660085914
aF0.4684810099974287
aF0.24331158889453774
aag5
ag5
a(lp6
(lp7
F0.3056704255921464
aF0.8837282957531093
aF0.24563875843001104
aF0.5181899008823566
aa(lp8
F0.4623021565802444
aF0.9063094999828523
aF0.14614446879092247
aF0.9364071905562261
aa(lp9
F0.5891807177952655
aF0.24268386665315467
aF0.7633805219812336
aF0.14398119988602287
aatp10
.