((lp0
(lp1
F0.9926493932379894
aF0.1290800617834097
aF0.24055892902848586
aF0.8098846481586135
aF0.5464535954205965
aF0.09859044273747308
aF0.5644552773296516
aF0.4950012440226804
aF0.2951580115540775
aF0.04835969935816786
aF0.14491745436540215
aF0.98528325569486
aF0.733426452324269
aF0.7880443942228827
aF0.6486708921521513
aF0.6679699123471651
aF0.0942136190343007
aF0.2280908239503504
aF0.37851038137362814
aF0.9491269727629809
aa(lp2
F0.05114451850174706
aF0.9369180958557997
aF0.09546194292788013
aF0.5116852478567979
aF0.12065615883793135
aF0.8672940008113943
aF0.15869279585821283
aF0.04346322642944278
aF0.21166996778099867
aF0.4438119398707452
aF0.2539796897981236
aF0.8390239211695718
aF0.017966799108555143
aF0.19178223859885402
aF0.8206439213195702
aF0.7627664971185476
aF0.4469159508239474
aF0.5420546958336379
aF0.7129855185906068
aF0.6011372738930453
aa(lp3
F0.3305762608488775
aF0.03707573479709436
aF0.9920488031117696
aF0.6492685604666967
aF0.5848649602536085
aF0.10809736567963257
aF0.5378390569665604
aF0.5856335371239768
aF0.4360558134208271
aF0.8246864461802996
aF0.35391635612701144
aF0.31736040490998774
aF0.001481043428420814
aF0.09653540698605823
aF0.8446668469113584
aF0.8535554455652515
aF0.41040665013305666
aF0.94080918140086
aF0.43826252771619056
aF0.1092529100920866
aa(lp4
(lp5
F0.13772195951655153
aF0.9029596348917059
aF0.10265701688101458
aF0.915269859360424
aF0.9057088745523723
aF0.4773661551849322
aF0.3385057090713649
aF0.886583701331292
aF0.01931664457691351
aF0.37059327600635217
aF0.7152137338824114
aF0.5523527011195767
aF0.12969980157708172
aF0.14167191042239236
aF0.4423004928640031
aF0.8743823440008396
aF0.5654234360134158
aF0.03756055460703456
aF0.2088938336941224
aF0.6778260142067495
aag5
ag5
a(lp6
(lp7
F0.7995109217464621
aF0.266764191698855
aF0.0013588927612183666
aF0.5226603238250499
aF0.3351426658238581
aF0.03855737041502494
aF0.711573114791822
aF0.97707466526784
aF0.35664639691375744
aF0.8390399620812256
aF0.7919753363594526
aF0.726822123294453
aF0.5855044634801667
aF0.5670216122739018
aF0.36374922471733495
aF0.9818353583073014
aF0.6176074806027071
aF0.35225295661868117
aF0.4459223843202056
aF0.7583793774370517
aa(lp8
F0.9675510458992518
aF0.7346782789686905
aF0.6783711516154458
aF0.4962694442100294
aF0.7086347768371668
aF0.10786170397920603
aF0.8972123368642649
aF0.5158037748566949
aF0.8328730675977678
aF0.5955375002384152
aF0.036200750460458675
aF0.18304844984271362
aF0.10819440085124066
aF0.745972051299102
aF0.3237605888144979
aF0.7532529185334712
aF0.2366610485871946
aF0.9112623330562308
aF0.14960490219832911
aF0.5993172328332051
aa(lp9
F0.4180303515600008
aF0.24592686150328713
aF0.6470096911796732
aF0.4104754155914009
aF0.5314426448197676
aF0.25641592661887314
aF0.4780183653985355
aF0.2856160287313998
aF0.6317897302760527
aF0.8834479182708632
aF0.1219196346125373
aF0.33110142003438536
aF0.08718740122967072
aF0.009440758264215865
aF0.8848471520695879
aF0.8225106751783473
aF0.9546839750244452
aF0.9169904893312134
aF0.7976519634298528
aF0.44092203889035797
aatp10
.