((lp0
(lp1
F0.7690400170387114
aF0.9537451321622535
aF0.5840792078605634
aF0.9905157277961272
aa(lp2
F0.7637441616220043
aF0.5807017124300166
aF0.25296062701936506
aF0.6298791300434807
aa(lp3
F0.2710713003932228
aF0.18301553493232214
aF0.33412159541157105
aF0.6535234073508621
aa(lp4
(lp5
F0.18008741785721283
aF0.8345645642328937
aF0.6643555108772135
aF0.8252763379172058
aag5
ag5
a(lp6
(lp7
F0.6854242444309925
aF0.3034757862255064
aF0.36350327883412814
aF0.6998331350393122
aa(lp8
F0.321479029364079
aF0.9260394081711234
aF0.35721616613095075
aF0.6654193856639441
aa(lp9
F0.5128374223276396
aF0.9427670331931828
aF0.4772447375958393
aF0.09453664017373731
aatp10
.