((lp0
(lp1
F0.42491699938435334
aF0.500498479122857
aF0.19867552712510084
aF0.4545063990465448
aa(lp2
F0.5398538058481185
aF0.26911759352008424
aF0.44440598393991215
aF0.311183387422291
aa(lp3
F0.4049936954014992
aF0.8329543984855458
aF0.6763438658737108
aF0.7218057574162475
aa(lp4
(lp5
F0.0034634798392421118
aF0.7905578625922992
aF0.363609116622172
aF0.8641687842382214
aag5
ag5
a(lp6
(lp7
F0.4259612124049623
aF0.04836398223774896
aF0.12197509514780491
aF0.3747846183048753
aa(lp8
F0.550340554869514
aF0.049566719316285646
aF0.0812195049617267
aF0.9246497831968892
aa(lp9
F0.2396388058357546
aF0.8045340928784068
aF0.635394018847654
aF0.2001338384455198
aatp10
.