ccopy_reg
_reconstructor
p0
(cpandas.core.frame
DataFrame
p1
c__builtin__
object
p2
Ntp3
Rp4
(dp5
S'_metadata'
p6
(lp7
sS'_typ'
p8
S'dataframe'
p9
sS'_data'
p10
g0
(cpandas.core.internals.managers
BlockManager
p11
g2
Ntp12
Rp13
((lp14
cpandas.core.indexes.base
_new_Index
p15
(cpandas.core.indexes.base
Index
p16
(dp17
S'data'
p18
cnumpy.core.multiarray
_reconstruct
p19
(cnumpy
ndarray
p20
(I0
tp21
S'b'
p22
tp23
Rp24
(I1
(L3L
tp25
cnumpy
dtype
p26
(S'O8'
p27
I0
I1
tp28
Rp29
(I3
S'|'
p30
NNNI-1
I-1
I63
tp31
bI00
(lp32
S'total iterations[IDF]'
p33
aS'total time[IDF]'
p34
aS'final_objective[IDF]'
p35
atp36
bsS'name'
p37
Nstp38
Rp39
ag15
(g16
(dp40
g18
g19
(g20
(I0
tp41
g22
tp42
Rp43
(I1
(L0L
tp44
g29
I00
(lp45
tp46
bsg37
Nstp47
Rp48
a(lp49
g19
(g20
(I0
tp50
g22
tp51
Rp52
(I1
(L3L
L0L
tp53
g29
I00
(lp54
tp55
ba(lp56
g15
(g16
(dp57
g18
g19
(g20
(I0
tp58
g22
tp59
Rp60
(I1
(L3L
tp61
g29
I00
(lp62
g33
ag34
ag35
atp63
bsg37
Nstp64
Rp65
a(dp66
S'0.14.1'
p67
(dp68
S'axes'
p69
g14
sS'blocks'
p70
(lp71
(dp72
S'mgr_locs'
p73
c__builtin__
slice
p74
(I0
I3
L1L
tp75
Rp76
sS'values'
p77
g52
sasstp78
bsb.