(lp0
cnumpy.core._multiarray_umath
_reconstruct
p1
(cnumpy
ndarray
p2
(I0
tp3
S'b'
p4
tp5
Rp6
(I1
(I1
tp7
cnumpy
dtype
p8
(S'f8'
p9
I0
I1
tp10
Rp11
(I3
S'<'
p12
NNNI-1
I-1
I0
tp13
bI00
S'\xba\xfaw\xdc1$$\xc0'
p14
tp15
bag1
(g2
(I0
tp16
g4
tp17
Rp18
(I1
(I1
tp19
g11
I00
S'\xba\xfaw\xdc1$$\xc0'
p20
tp21
bag1
(g2
(I0
tp22
g4
tp23
Rp24
(I1
(I1
tp25
g11
I00
S"\xe0'\x84\xf5T\x00%\xc0"
p26
tp27
bag1
(g2
(I0
tp28
g4
tp29
Rp30
(I1
(I1
tp31
g11
I00
S'\xa2\xf8\xee\xb6\x9a\x1d$\xc0'
p32
tp33
bag1
(g2
(I0
tp34
g4
tp35
Rp36
(I1
(I1
tp37
g11
I00
S'\xe2\xdd\xbfr\x9bz#\xc0'
p38
tp39
bag1
(g2
(I0
tp40
g4
tp41
Rp42
(I1
(I1
tp43
g11
I00
S'\x86\x9b\x93\xdc\xe3\xe9"\xc0'
p44
tp45
bag1
(g2
(I0
tp46
g4
tp47
Rp48
(I1
(I1
tp49
g11
I00
S'&%\xa3\xd2\xd9g#\xc0'
p50
tp51
bag1
(g2
(I0
tp52
g4
tp53
Rp54
(I1
(I1
tp55
g11
I00
S'\xf3\xfdai\x05\xcc"\xc0'
p56
tp57
bag1
(g2
(I0
tp58
g4
tp59
Rp60
(I1
(I1
tp61
g11
I00
S'\xa8\xef2\x80;:#\xc0'
p62
tp63
bag1
(g2
(I0
tp64
g4
tp65
Rp66
(I1
(I1
tp67
g11
I00
S'\x9b\x80)\xca\xa6\xfe"\xc0'
p68
tp69
bag1
(g2
(I0
tp70
g4
tp71
Rp72
(I1
(I1
tp73
g11
I00
S'\xfe\xb0\xaa\xa6\xc8f#\xc0'
p74
tp75
bag1
(g2
(I0
tp76
g4
tp77
Rp78
(I1
(I1
tp79
g11
I00
S'my\x1d%v\x84"\xc0'
p80
tp81
bag1
(g2
(I0
tp82
g4
tp83
Rp84
(I1
(I1
tp85
g11
I00
S'sQ\x85u\x82P#\xc0'
p86
tp87
bag1
(g2
(I0
tp88
g4
tp89
Rp90
(I1
(I1
tp91
g11
I00
S'\x98\x9a\xb2h\xac%"\xc0'
p92
tp93
bag1
(g2
(I0
tp94
g4
tp95
Rp96
(I1
(I1
tp97
g11
I00
S'd\x96\x1a\xce\x932#\xc0'
p98
tp99
bag1
(g2
(I0
tp100
g4
tp101
Rp102
(I1
(I1
tp103
g11
I00
S'ml0Z\xa2\x1a"\xc0'
p104
tp105
bag1
(g2
(I0
tp106
g4
tp107
Rp108
(I1
(I1
tp109
g11
I00
S'\xe8\xaa\xab\xb1\xed #\xc0'
p110
tp111
bag1
(g2
(I0
tp112
g4
tp113
Rp114
(I1
(I1
tp115
g11
I00
S'\xe0\n\x01Yy\xd0!\xc0'
p116
tp117
bag1
(g2
(I0
tp118
g4
tp119
Rp120
(I1
(I1
tp121
g11
I00
S'\xc8\xaa\xe9\x851\x0b#\xc0'
p122
tp123
bag1
(g2
(I0
tp124
g4
tp125
Rp126
(I1
(I1
tp127
g11
I00
S'b\xf2/U\xe1\x1e!\xc0'
p128
tp129
bag1
(g2
(I0
tp130
g4
tp131
Rp132
(I1
(I1
tp133
g11
I00
S'\xaf\x8dI\xed\x9b\xf1"\xc0'
p134
tp135
bag1
(g2
(I0
tp136
g4
tp137
Rp138
(I1
(I1
tp139
g11
I00
S'\x1d\xa6\rk\x8f\x0f!\xc0'
p140
tp141
bag1
(g2
(I0
tp142
g4
tp143
Rp144
(I1
(I1
tp145
g11
I00
S'\x1c\xcf\x9e,\x80\xde"\xc0'
p146
tp147
bag1
(g2
(I0
tp148
g4
tp149
Rp150
(I1
(I1
tp151
g11
I00
S"\x91\xa8\xdb\x97'\xb7!\xc0"
p152
tp153
bag1
(g2
(I0
tp154
g4
tp155
Rp156
(I1
(I1
tp157
g11
I00
S'\xddeK\xb3Q\x89"\xc0'
p158
tp159
bag1
(g2
(I0
tp160
g4
tp161
Rp162
(I1
(I1
tp163
g11
I00
S'\xa6\xe1sc\xed\xe2!\xc0'
p164
tp165
bag1
(g2
(I0
tp166
g4
tp167
Rp168
(I1
(I1
tp169
g11
I00
S'\xf6\xe8\x12\x0eG\x80"\xc0'
p170
tp171
bag1
(g2
(I0
tp172
g4
tp173
Rp174
(I1
(I1
tp175
g11
I00
S'\x83\xffh\xa2%0 \xc0'
p176
tp177
bag1
(g2
(I0
tp178
g4
tp179
Rp180
(I1
(I1
tp181
g11
I00
S'\x1f\x8cs\x9d\xf6G \xc0'
p182
tp183
bag1
(g2
(I0
tp184
g4
tp185
Rp186
(I1
(I1
tp187
g11
I00
S'XT\xc2\x9b(G \xc0'
p188
tp189
bag1
(g2
(I0
tp190
g4
tp191
Rp192
(I1
(I1
tp193
g11
I00
S'\xf5\xe2\x15\xa7\x92!\x82L'
p194
tp195
bag1
(g2
(I0
tp196
g4
tp197
Rp198
(I1
(I1
tp199
g11
I00
S'l_\x1e\xfd\xdd\xaeeI'
p200
tp201
bag1
(g2
(I0
tp202
g4
tp203
Rp204
(I1
(I1
tp205
g11
I00
S'N\x89\xb51\xa2\xeb\xe3E'
p206
tp207
bag1
(g2
(I0
tp208
g4
tp209
Rp210
(I1
(I1
tp211
g11
I00
S'\xa2\x02\xbd\xb5\x96PvB'
p212
tp213
bag1
(g2
(I0
tp214
g4
tp215
Rp216
(I1
(I1
tp217
g11
I00
S'\x02\xc0\x08!JQ\x9a@'
p218
tp219
bag1
(g2
(I0
tp220
g4
tp221
Rp222
(I1
(I1
tp223
g11
I00
S'G\xd8I"\x02\xe1!\xc0'
p224
tp225
bag1
(g2
(I0
tp226
g4
tp227
Rp228
(I1
(I1
tp229
g11
I00
S'\x11\xe6\xbc$B\xdb!\xc0'
p230
tp231
bag1
(g2
(I0
tp232
g4
tp233
Rp234
(I1
(I1
tp235
g11
I00
S'\xef|\x85\xf0\xd8S \xc0'
p236
tp237
bag1
(g2
(I0
tp238
g4
tp239
Rp240
(I1
(I1
tp241
g11
I00
S'G\x8bV\xfe\x8aH \xc0'
p242
tp243
bag1
(g2
(I0
tp244
g4
tp245
Rp246
(I1
(I1
tp247
g11
I00
S'\xc0UZULG \xc0'
p248
tp249
bag1
(g2
(I0
tp250
g4
tp251
Rp252
(I1
(I1
tp253
g11
I00
S'\xda\xd1\x0c/,G \xc0'
p254
tp255
bag1
(g2
(I0
tp256
g4
tp257
Rp258
(I1
(I1
tp259
g11
I00
S'\xcc\x95\xaf\t\xb7\\!\xc0'
p260
tp261
bag1
(g2
(I0
tp262
g4
tp263
Rp264
(I1
(I1
tp265
g11
I00
S'(\xa1\x05T\x90M!\xc0'
p266
tp267
bag1
(g2
(I0
tp268
g4
tp269
Rp270
(I1
(I1
tp271
g11
I00
S'JS\xa8LKc!\xc0'
p272
tp273
bag1
(g2
(I0
tp274
g4
tp275
Rp276
(I1
(I1
tp277
g11
I00
S'\xde\x1e\xcfx\xb2\x7f!\xc0'
p278
tp279
bag1
(g2
(I0
tp280
g4
tp281
Rp282
(I1
(I1
tp283
g11
I00
S')g\xf7\x8dY]\xf1H'
p284
tp285
bag1
(g2
(I0
tp286
g4
tp287
Rp288
(I1
(I1
tp289
g11
I00
S'\xfch\r8E\xfb\xd4E'
p290
tp291
bag1
(g2
(I0
tp292
g4
tp293
Rp294
(I1
(I1
tp295
g11
I00
S'6H\xe0w\xcd\xb2\xd6B'
p296
tp297
bag1
(g2
(I0
tp298
g4
tp299
Rp300
(I1
(I1
tp301
g11
I00
S'\xe0\xea\x08\xd6\x1b\x17\xf6\xbf'
p302
tp303
bag1
(g2
(I0
tp304
g4
tp305
Rp306
(I1
(I1
tp307
g11
I00
S'\x0c\x93\xfb\xf7\xa8\xd3!\xc0'
p308
tp309
bag1
(g2
(I0
tp310
g4
tp311
Rp312
(I1
(I1
tp313
g11
I00
S'\xf40G\xf0G\x94!\xc0'
p314
tp315
bag1
(g2
(I0
tp316
g4
tp317
Rp318
(I1
(I1
tp319
g11
I00
S'\xe0j\xa5\xc7\xf3\x81!\xc0'
p320
tp321
bag1
(g2
(I0
tp322
g4
tp323
Rp324
(I1
(I1
tp325
g11
I00
S'\x95\xa6\xd1\xba\xec\x7f!\xc0'
p326
tp327
bag1
(g2
(I0
tp328
g4
tp329
Rp330
(I1
(I1
tp331
g11
I00
S'\xcaW\x90M\xb8\x7f!\xc0'
p332
tp333
bag1
(g2
(I0
tp334
g4
tp335
Rp336
(I1
(I1
tp337
g11
I00
S'\x0e\x1c\x19\x0e\xb3\x7f!\xc0'
p338
tp339
bag1
(g2
(I0
tp340
g4
tp341
Rp342
(I1
(I1
tp343
g11
I00
S'B\xf4\xbc\x87\xb2\x7f!\xc0'
p344
tp345
bag1
(g2
(I0
tp346
g4
tp347
Rp348
(I1
(I1
tp349
g11
I00
S'\x9b\xf8\xb3\x1eJ\xc70G'
p350
tp351
bag1
(g2
(I0
tp352
g4
tp353
Rp354
(I1
(I1
tp355
g11
I00
S'C*bP\xa7\x9bLD'
p356
tp357
bag1
(g2
(I0
tp358
g4
tp359
Rp360
(I1
(I1
tp361
g11
I00
S'\xb5\x91\xa9\xe84$AA'
p362
tp363
bag1
(g2
(I0
tp364
g4
tp365
Rp366
(I1
(I1
tp367
g11
I00
S'\x87\x06\xe5D\xd7\t"\xc0'
p368
tp369
bag1
(g2
(I0
tp370
g4
tp371
Rp372
(I1
(I1
tp373
g11
I00
S'sf\x1b8\xff\xb6!\xc0'
p374
tp375
bag1
(g2
(I0
tp376
g4
tp377
Rp378
(I1
(I1
tp379
g11
I00
S'X\xcf\xcc\x05\xac\x86!\xc0'
p380
tp381
bag1
(g2
(I0
tp382
g4
tp383
Rp384
(I1
(I1
tp385
g11
I00
S'>h\xa9^i\x80!\xc0'
p386
tp387
bag1
(g2
(I0
tp388
g4
tp389
Rp390
(I1
(I1
tp391
g11
I00
S'*v\x85\xdb\xc4\x7f!\xc0'
p392
tp393
bag1
(g2
(I0
tp394
g4
tp395
Rp396
(I1
(I1
tp397
g11
I00
S'r\x05\x07]\xb4\x7f!\xc0'
p398
tp399
bag1
(g2
(I0
tp400
g4
tp401
Rp402
(I1
(I1
tp403
g11
I00
S'\x87\x0b\xab\xb6\xb2\x7f!\xc0'
p404
tp405
bag1
(g2
(I0
tp406
g4
tp407
Rp408
(I1
(I1
tp409
g11
I00
S'\xb6]n\x8c\xb2\x7f!\xc0'
p410
tp411
bag1
(g2
(I0
tp412
g4
tp413
Rp414
(I1
(I1
tp415
g11
I00
S'\xe7\x07J)\x8a\xbc!\xc0'
p416
tp417
bag1
(g2
(I0
tp418
g4
tp419
Rp420
(I1
(I1
tp421
g11
I00
S'\xb0\x04\x1d\xd3\x1b\xfc\x98H'
p422
tp423
bag1
(g2
(I0
tp424
g4
tp425
Rp426
(I1
(I1
tp427
g11
I00
S'\n~\x1c~\xdb\rSE'
p428
tp429
bag1
(g2
(I0
tp430
g4
tp431
Rp432
(I1
(I1
tp433
g11
I00
S'X\x15S\xc2\xf2\xa1fB'
p434
tp435
bag1
(g2
(I0
tp436
g4
tp437
Rp438
(I1
(I1
tp439
g11
I00
S"'\x883\x8e.\xf5\x1b\xc0"
p440
tp441
bag1
(g2
(I0
tp442
g4
tp443
Rp444
(I1
(I1
tp445
g11
I00
S'\xdeaZUm\xf2!\xc0'
p446
tp447
bag1
(g2
(I0
tp448
g4
tp449
Rp450
(I1
(I1
tp451
g11
I00
S'\xcaBTt\xa4\xc6!\xc0'
p452
tp453
bag1
(g2
(I0
tp454
g4
tp455
Rp456
(I1
(I1
tp457
g11
I00
S'B\xe8\xb8 \x9d\xbd!\xc0'
p458
tp459
bag1
(g2
(I0
tp460
g4
tp461
Rp462
(I1
(I1
tp463
g11
I00
S'\x8a\xe3\xed\xd3\xa5\xbc!\xc0'
p464
tp465
bag1
(g2
(I0
tp466
g4
tp467
Rp468
(I1
(I1
tp469
g11
I00
S'\xcek\xfd\xed\x8c\xbc!\xc0'
p470
tp471
bag1
(g2
(I0
tp472
g4
tp473
Rp474
(I1
(I1
tp475
g11
I00
S'\xadX9\xf2m\xb3!\xc0'
p476
tp477
bag1
(g2
(I0
tp478
g4
tp479
Rp480
(I1
(I1
tp481
g11
I00
S'\x0f\x9a-\xe6\xde\xc0!\xc0'
p482
tp483
bag1
(g2
(I0
tp484
g4
tp485
Rp486
(I1
(I1
tp487
g11
I00
S'Z\x8c;\xcc\xf5\xb4!\xc0'
p488
tp489
bag1
(g2
(I0
tp490
g4
tp491
Rp492
(I1
(I1
tp493
g11
I00
S'\x02\x17\x8c\xc1\xca\xc3!\xc0'
p494
tp495
bag1
(g2
(I0
tp496
g4
tp497
Rp498
(I1
(I1
tp499
g11
I00
S'\xc1\xc6\xa5\xca\x8d\x13\xd2D'
p500
tp501
bag1
(g2
(I0
tp502
g4
tp503
Rp504
(I1
(I1
tp505
g11
I00
S'i\xb7f\x97\x9c83A'
p506
tp507
bag1
(g2
(I0
tp508
g4
tp509
Rp510
(I1
(I1
tp511
g11
I00
S't\x85\xb0\xa0+Y\xec@'
p512
tp513
bag1
(g2
(I0
tp514
g4
tp515
Rp516
(I1
(I1
tp517
g11
I00
S'\xd0\x19>\x8e\x019$\xc0'
p518
tp519
bag1
(g2
(I0
tp520
g4
tp521
Rp522
(I1
(I1
tp523
g11
I00
S'\xb6[\x14\\~s!\xc0'
p524
tp525
bag1
(g2
(I0
tp526
g4
tp527
Rp528
(I1
(I1
tp529
g11
I00
S'>\x9e+K\xec\xbf!\xc0'
p530
tp531
bag1
(g2
(I0
tp532
g4
tp533
Rp534
(I1
(I1
tp535
g11
I00
S'\x94\xae\x1e?o\xc3!\xc0'
p536
tp537
bag1
(g2
(I0
tp538
g4
tp539
Rp540
(I1
(I1
tp541
g11
I00
S'S\x80\xac\xad\xc1\xc3!\xc0'
p542
tp543
bag1
(g2
(I0
tp544
g4
tp545
Rp546
(I1
(I1
tp547
g11
I00
S'U\xdaX\xd9\xc9\xc3!\xc0'
p548
tp549
bag1
(g2
(I0
tp550
g4
tp551
Rp552
(I1
(I1
tp553
g11
I00
S'\xca>T\xaa\xca\xc3!\xc0'
p554
tp555
bag1
(g2
(I0
tp556
g4
tp557
Rp558
(I1
(I1
tp559
g11
I00
S'\xcf\xb59\xbf\xca\xc3!\xc0'
p560
tp561
bag1
(g2
(I0
tp562
g4
tp563
Rp564
(I1
(I1
tp565
g11
I00
S'\xcc\xf99\xc2\xf4\xed!\xc0'
p566
tp567
bag1
(g2
(I0
tp568
g4
tp569
Rp570
(I1
(I1
tp571
g11
I00
S'\x08.3\xab\xf1\xd4!\xc0'
p572
tp573
bag1
(g2
(I0
tp574
g4
tp575
Rp576
(I1
(I1
tp577
g11
I00
S'\x84\x1208n\xff!\xc0'
p578
tp579
bag1
(g2
(I0
tp580
g4
tp581
Rp582
(I1
(I1
tp583
g11
I00
S'>\xff\xb1\r\xe6L%E'
p584
tp585
bag1
(g2
(I0
tp586
g4
tp587
Rp588
(I1
(I1
tp589
g11
I00
S'\xb4\x9c\x05%H\xa7%B'
p590
tp591
bag1
(g2
(I0
tp592
g4
tp593
Rp594
(I1
(I1
tp595
g11
I00
S'\xb1\x8a\xb5\\\x91\x80dA'
p596
tp597
bag1
(g2
(I0
tp598
g4
tp599
Rp600
(I1
(I1
tp601
g11
I00
S",2\xbb\x05\x8eQ'\xc0"
p602
tp603
bag1
(g2
(I0
tp604
g4
tp605
Rp606
(I1
(I1
tp607
g11
I00
S'\xbd\xaa\xc7a\x1f\xb1!\xc0'
p608
tp609
bag1
(g2
(I0
tp610
g4
tp611
Rp612
(I1
(I1
tp613
g11
I00
S'\xa4\x08\xa0\xa6\xe5\xfb!\xc0'
p614
tp615
bag1
(g2
(I0
tp616
g4
tp617
Rp618
(I1
(I1
tp619
g11
I00
S'f\x08:+\x1c\xff!\xc0'
p620
tp621
bag1
(g2
(I0
tp622
g4
tp623
Rp624
(I1
(I1
tp625
g11
I00
S'\xf8\x00\xba\x18f\xff!\xc0'
p626
tp627
bag1
(g2
(I0
tp628
g4
tp629
Rp630
(I1
(I1
tp631
g11
I00
S'g\x95shm\xff!\xc0'
p632
tp633
bag1
(g2
(I0
tp634
g4
tp635
Rp636
(I1
(I1
tp637
g11
I00
S'~\x8fj#n\xff!\xc0'
p638
tp639
bag1
(g2
(I0
tp640
g4
tp641
Rp642
(I1
(I1
tp643
g11
I00
S'\x97S\x1c6n\xff!\xc0'
p644
tp645
bag1
(g2
(I0
tp646
g4
tp647
Rp648
(I1
(I1
tp649
g11
I00
S'\xda#\xdd-\xd9\x06"\xc0'
p650
tp651
bag1
(g2
(I0
tp652
g4
tp653
Rp654
(I1
(I1
tp655
g11
I00
S'\x14\x93>\xfa^\x08"\xc0'
p656
tp657
bag1
(g2
(I0
tp658
g4
tp659
Rp660
(I1
(I1
tp661
g11
I00
S'\x88\xaf\x1f*\x01\x9d\xe2C'
p662
tp663
bag1
(g2
(I0
tp664
g4
tp665
Rp666
(I1
(I1
tp667
g11
I00
S'\xe9\xbd\x9c\x88iYGA'
p668
tp669
bag1
(g2
(I0
tp670
g4
tp671
Rp672
(I1
(I1
tp673
g11
I00
S'\xb7\xcc\xd6\x1c\xc6\xd4[\xc0'
p674
tp675
bag1
(g2
(I0
tp676
g4
tp677
Rp678
(I1
(I1
tp679
g11
I00
S'\xb4Z\x86?\xe6\xc6!\xc0'
p680
tp681
bag1
(g2
(I0
tp682
g4
tp683
Rp684
(I1
(I1
tp685
g11
I00
S'h\xa2\xad\xfb4\xee!\xc0'
p686
tp687
bag1
(g2
(I0
tp688
g4
tp689
Rp690
(I1
(I1
tp691
g11
I00
S'\x9a\xf5]/\x84\x07"\xc0'
p692
tp693
bag1
(g2
(I0
tp694
g4
tp695
Rp696
(I1
(I1
tp697
g11
I00
S'\xf8\x0f\xf5\xe7L\x08"\xc0'
p698
tp699
bag1
(g2
(I0
tp700
g4
tp701
Rp702
(I1
(I1
tp703
g11
I00
S'Nl;5]\x08"\xc0'
p704
tp705
bag1
(g2
(I0
tp706
g4
tp707
Rp708
(I1
(I1
tp709
g11
I00
S'R\x0b\n\xcd^\x08"\xc0'
p710
tp711
bag1
(g2
(I0
tp712
g4
tp713
Rp714
(I1
(I1
tp715
g11
I00
S'9\x91\xb9\xf5^\x08"\xc0'
p716
tp717
bag1
(g2
(I0
tp718
g4
tp719
Rp720
(I1
(I1
tp721
g11
I00
S'R\xe0\xca\xf9^\x08"\xc0'
p722
tp723
bag1
(g2
(I0
tp724
g4
tp725
Rp726
(I1
(I1
tp727
g11
I00
S'h\xf6\x93B\xf5\x08"\xc0'
p728
tp729
bag1
(g2
(I0
tp730
g4
tp731
Rp732
(I1
(I1
tp733
g11
I00
S'<\xf3\xc4\xdfn\x08"\xc0'
p734
tp735
bag1
(g2
(I0
tp736
g4
tp737
Rp738
(I1
(I1
tp739
g11
I00
S'0\xb0\x0f\x93`\x08"\xc0'
p740
tp741
bag1
(g2
(I0
tp742
g4
tp743
Rp744
(I1
(I1
tp745
g11
I00
S'\xa8\xfb\xbd"_\x08"\xc0'
p746
tp747
bag1
(g2
(I0
tp748
g4
tp749
Rp750
(I1
(I1
tp751
g11
I00
S'\xc5>\xe3\xfd^\x08"\xc0'
p752
tp753
bag1
(g2
(I0
tp754
g4
tp755
Rp756
(I1
(I1
tp757
g11
I00
S'\xb6\xb63\xfa^\x08"\xc0'
p758
tp759
bag1
(g2
(I0
tp760
g4
tp761
Rp762
(I1
(I1
tp763
g11
I00
S'+\\\xd5\xf9^\x08"\xc0'
p764
tp765
bag1
(g2
(I0
tp766
g4
tp767
Rp768
(I1
(I1
tp769
g11
I00
S'\xb4\xec\xcb\xf9^\x08"\xc0'
p770
tp771
bag1
(g2
(I0
tp772
g4
tp773
Rp774
(I1
(I1
tp775
g11
I00
S'(\xfb\xca\xf9^\x08"\xc0'
p776
tp777
bag1
(g2
(I0
tp778
g4
tp779
Rp780
(I1
(I1
tp781
g11
I00
S'\xff\xe2\xca\xf9^\x08"\xc0'
p782
tp783
bag1
(g2
(I0
tp784
g4
tp785
Rp786
(I1
(I1
tp787
g11
I00
S'\x98\xe0\xca\xf9^\x08"\xc0'
p788
tp789
bag1
(g2
(I0
tp790
g4
tp791
Rp792
(I1
(I1
tp793
g11
I00
S'n\xd8\xd3\xd2\xb6\x08"\xc0'
p794
tp795
bag1
(g2
(I0
tp796
g4
tp797
Rp798
(I1
(I1
tp799
g11
I00
S'/\xebQSi\x08"\xc0'
p800
tp801
bag1
(g2
(I0
tp802
g4
tp803
Rp804
(I1
(I1
tp805
g11
I00
S'\xf0\xd0\xc3\x06`\x08"\xc0'
p806
tp807
bag1
(g2
(I0
tp808
g4
tp809
Rp810
(I1
(I1
tp811
g11
I00
S'\x87\xdd\xba\x14_\x08"\xc0'
p812
tp813
bag1
(g2
(I0
tp814
g4
tp815
Rp816
(I1
(I1
tp817
g11
I00
S'=\x94|\xfc^\x08"\xc0'
p818
tp819
bag1
(g2
(I0
tp820
g4
tp821
Rp822
(I1
(I1
tp823
g11
I00
S'8\xd9\x0f\xfa^\x08"\xc0'
p824
tp825
bag1
(g2
(I0
tp826
g4
tp827
Rp828
(I1
(I1
tp829
g11
I00
S'@\xc6\xd1\xf9^\x08"\xc0'
p830
tp831
bag1
(g2
(I0
tp832
g4
tp833
Rp834
(I1
(I1
tp835
g11
I00
S'(\x91\xcb\xf9^\x08"\xc0'
p836
tp837
bag1
(g2
(I0
tp838
g4
tp839
Rp840
(I1
(I1
tp841
g11
I00
S'?\xf2\xca\xf9^\x08"\xc0'
p842
tp843
bag1
(g2
(I0
tp844
g4
tp845
Rp846
(I1
(I1
tp847
g11
I00
S'\\\xe2\xca\xf9^\x08"\xc0'
p848
tp849
bag1
(g2
(I0
tp850
g4
tp851
Rp852
(I1
(I1
tp853
g11
I00
S'\xc4\xe0\xca\xf9^\x08"\xc0'
p854
tp855
bag1
(g2
(I0
tp856
g4
tp857
Rp858
(I1
(I1
tp859
g11
I00
S'GGc\x04Eq=I'
p860
tp861
bag1
(g2
(I0
tp862
g4
tp863
Rp864
(I1
(I1
tp865
g11
I00
S'\xd4\x95\x07\x90O\x11*F'
p866
tp867
bag1
(g2
(I0
tp868
g4
tp869
Rp870
(I1
(I1
tp871
g11
I00
S'\xdeV\x8eC+53C'
p872
tp873
bag1
(g2
(I0
tp874
g4
tp875
Rp876
(I1
(I1
tp877
g11
I00
S'Q\xd3\x18\x7f\x87*\xb8@'
p878
tp879
bag1
(g2
(I0
tp880
g4
tp881
Rp882
(I1
(I1
tp883
g11
I00
S'h\xaf\xde\r\x8e\xde%\xc0'
p884
tp885
bag1
(g2
(I0
tp886
g4
tp887
Rp888
(I1
(I1
tp889
g11
I00
S'G\xe3\x1d\xcb\xa0,#\xc0'
p890
tp891
bag1
(g2
(I0
tp892
g4
tp893
Rp894
(I1
(I1
tp895
g11
I00
S'\xd1z\xd0\xdb\xe7\x00"\xc0'
p896
tp897
bag1
(g2
(I0
tp898
g4
tp899
Rp900
(I1
(I1
tp901
g11
I00
S'\xe6b\xb5\xf3\x15\x08"\xc0'
p902
tp903
bag1
(g2
(I0
tp904
g4
tp905
Rp906
(I1
(I1
tp907
g11
I00
S'\x9c^\xb6\xc3X\x08"\xc0'
p908
tp909
bag1
(g2
(I0
tp910
g4
tp911
Rp912
(I1
(I1
tp913
g11
I00
S'l\xd3\x8e]^\x08"\xc0'
p914
tp915
bag1
(g2
(I0
tp916
g4
tp917
Rp918
(I1
(I1
tp919
g11
I00
S'$^2\xea^\x08"\xc0'
p920
tp921
bag1
(g2
(I0
tp922
g4
tp923
Rp924
(I1
(I1
tp925
g11
I00
S'L-\x94\x17\x9a\x96!\xc0'
p926
tp927
bag1
(g2
(I0
tp928
g4
tp929
Rp930
(I1
(I1
tp931
g11
I00
S'\xa87\x93\x1b\xe3\x07"\xc0'
p932
tp933
bag1
(g2
(I0
tp934
g4
tp935
Rp936
(I1
(I1
tp937
g11
I00
S',\xa5\xfb\xb3\\\x08"\xc0'
p938
tp939
bag1
(g2
(I0
tp940
g4
tp941
Rp942
(I1
(I1
tp943
g11
I00
S'\xcc\xc0\x03\xca^\x08"\xc0'
p944
tp945
bag1
(g2
(I0
tp946
g4
tp947
Rp948
(I1
(I1
tp949
g11
I00
S'\x8c\xb08\xe7^\x08"\xc0'
p950
tp951
bag1
(g2
(I0
tp952
g4
tp953
Rp954
(I1
(I1
tp955
g11
I00
S'D\xd2\xe6\xe9^\x08"\xc0'
p956
tp957
bag1
(g2
(I0
tp958
g4
tp959
Rp960
(I1
(I1
tp961
g11
I00
S'\xbf\xd1*\xea^\x08"\xc0'
p962
tp963
bag1
(g2
(I0
tp964
g4
tp965
Rp966
(I1
(I1
tp967
g11
I00
S'\xeb\x9c1\xea^\x08"\xc0'
p968
tp969
bag1
(g2
(I0
tp970
g4
tp971
Rp972
(I1
(I1
tp973
g11
I00
S'\xd2J2\xea^\x08"\xc0'
p974
tp975
bag1
(g2
(I0
tp976
g4
tp977
Rp978
(I1
(I1
tp979
g11
I00
S'7\\2\xea^\x08"\xc0'
p980
tp981
bag1
(g2
(I0
tp982
g4
tp983
Rp984
(I1
(I1
tp985
g11
I00
S'\xf4]2\xea^\x08"\xc0'
p986
tp987
bag1
(g2
(I0
tp988
g4
tp989
Rp990
(I1
(I1
tp991
g11
I00
S'\xae\xb2\xa7\xc2\xf5\xa1!\xc0'
p992
tp993
bag1
(g2
(I0
tp994
g4
tp995
Rp996
(I1
(I1
tp997
g11
I00
S'Q\x8aM\x14w\t"\xc0'
p998
tp999
bag1
(g2
(I0
tp1000
g4
tp1001
Rp1002
(I1
(I1
tp1003
g11
I00
S'Z\x0bB\xa0\x85\x08"\xc0'
p1004
tp1005
bag1
(g2
(I0
tp1006
g4
tp1007
Rp1008
(I1
(I1
tp1009
g11
I00
S'P\x07\xf7\xe2b\x08"\xc0'
p1010
tp1011
bag1
(g2
(I0
tp1012
g4
tp1013
Rp1014
(I1
(I1
tp1015
g11
I00
S'\x922!P_\x08"\xc0'
p1016
tp1017
bag1
(g2
(I0
tp1018
g4
tp1019
Rp1020
(I1
(I1
tp1021
g11
I00
S'[\x81d\xf4^\x08"\xc0'
p1022
tp1023
bag1
(g2
(I0
tp1024
g4
tp1025
Rp1026
(I1
(I1
tp1027
g11
I00
S'*c7\xeb^\x08"\xc0'
p1028
tp1029
bag1
(g2
(I0
tp1030
g4
tp1031
Rp1032
(I1
(I1
tp1033
g11
I00
S'\x16xL\xea^\x08"\xc0'
p1034
tp1035
bag1
(g2
(I0
tp1036
g4
tp1037
Rp1038
(I1
(I1
tp1039
g11
I00
S')\xfa4\xea^\x08"\xc0'
p1040
tp1041
bag1
(g2
(I0
tp1042
g4
tp1043
Rp1044
(I1
(I1
tp1045
g11
I00
S'\xc4\xa02\xea^\x08"\xc0'
p1046
tp1047
bag1
(g2
(I0
tp1048
g4
tp1049
Rp1050
(I1
(I1
tp1051
g11
I00
S'\xa0d2\xea^\x08"\xc0'
p1052
tp1053
bag1
(g2
(I0
tp1054
g4
tp1055
Rp1056
(I1
(I1
tp1057
g11
I00
S'\x1c\xc3\x89\xdf\xe6\x04"\xc0'
p1058
tp1059
bag1
(g2
(I0
tp1060
g4
tp1061
Rp1062
(I1
(I1
tp1063
g11
I00
S'\x9cs\xca\xc4+\x17"\xc0'
p1064
tp1065
bag1
(g2
(I0
tp1066
g4
tp1067
Rp1068
(I1
(I1
tp1069
g11
I00
S'\xae\xe3\x13O\x03\n"\xc0'
p1070
tp1071
bag1
(g2
(I0
tp1072
g4
tp1073
Rp1074
(I1
(I1
tp1075
g11
I00
S';4\xcc_\x89\x08"\xc0'
p1076
tp1077
bag1
(g2
(I0
tp1078
g4
tp1079
Rp1080
(I1
(I1
tp1081
g11
I00
S'\x82\xc5;*c\x08"\xc0'
p1082
tp1083
bag1
(g2
(I0
tp1084
g4
tp1085
Rp1086
(I1
(I1
tp1087
g11
I00
S'#\xe3\x02W_\x08"\xc0'
p1088
tp1089
bag1
(g2
(I0
tp1090
g4
tp1091
Rp1092
(I1
(I1
tp1093
g11
I00
S'\xee\x11\x14\xf5^\x08"\xc0'
p1094
tp1095
bag1
(g2
(I0
tp1096
g4
tp1097
Rp1098
(I1
(I1
tp1099
g11
I00
S'\x07\xf6H\xeb^\x08"\xc0'
p1100
tp1101
bag1
(g2
(I0
tp1102
g4
tp1103
Rp1104
(I1
(I1
tp1105
g11
I00
S'\xf7?N\xea^\x08"\xc0'
p1106
tp1107
bag1
(g2
(I0
tp1108
g4
tp1109
Rp1110
(I1
(I1
tp1111
g11
I00
S'\xc2-5\xea^\x08"\xc0'
p1112
tp1113
bag1
(g2
(I0
tp1114
g4
tp1115
Rp1116
(I1
(I1
tp1117
g11
I00
S'\xf1\xab2\xea^\x08"\xc0'
p1118
tp1119
bag1
(g2
(I0
tp1120
g4
tp1121
Rp1122
(I1
(I1
tp1123
g11
I00
S'\xb0\x90V\x9cE\xd4\xb1J'
p1124
tp1125
bag1
(g2
(I0
tp1126
g4
tp1127
Rp1128
(I1
(I1
tp1129
g11
I00
S'\xf1\x04\xb7\xaa[.\xa8G'
p1130
tp1131
bag1
(g2
(I0
tp1132
g4
tp1133
Rp1134
(I1
(I1
tp1135
g11
I00
S'\xda\x0f0O\xe9\xa3\x95D'
p1136
tp1137
bag1
(g2
(I0
tp1138
g4
tp1139
Rp1140
(I1
(I1
tp1141
g11
I00
S'\xda\x1f\xd0\xc4\xc1\xac\xc0A'
p1142
tp1143
bag1
(g2
(I0
tp1144
g4
tp1145
Rp1146
(I1
(I1
tp1147
g11
I00
S'\x84\x186d\x86\x1f\xdc\xc0'
p1148
tp1149
bag1
(g2
(I0
tp1150
g4
tp1151
Rp1152
(I1
(I1
tp1153
g11
I00
S'\n(I\xec!\xa1$\xc0'
p1154
tp1155
bag1
(g2
(I0
tp1156
g4
tp1157
Rp1158
(I1
(I1
tp1159
g11
I00
S'Z[\xfb\x14\x92\xd1!\xc0'
p1160
tp1161
bag1
(g2
(I0
tp1162
g4
tp1163
Rp1164
(I1
(I1
tp1165
g11
I00
S'd\x14\x01`Y\x07"\xc0'
p1166
tp1167
bag1
(g2
(I0
tp1168
g4
tp1169
Rp1170
(I1
(I1
tp1171
g11
I00
S'&\xd6M/M\x08"\xc0'
p1172
tp1173
bag1
(g2
(I0
tp1174
g4
tp1175
Rp1176
(I1
(I1
tp1177
g11
I00
S'\x11zr9]\x08"\xc0'
p1178
tp1179
bag1
(g2
(I0
tp1180
g4
tp1181
Rp1182
(I1
(I1
tp1183
g11
I00
S'\xe4B"\xbf^\x08"\xc0'
p1184
tp1185
bag1
(g2
(I0
tp1186
g4
tp1187
Rp1188
(I1
(I1
tp1189
g11
I00
S'\xdc\xa1\xc7\xe4n\xf1!\xc0'
p1190
tp1191
bag1
(g2
(I0
tp1192
g4
tp1193
Rp1194
(I1
(I1
tp1195
g11
I00
S'\xa4zn\xc5\x9c#"\xc0'
p1196
tp1197
bag1
(g2
(I0
tp1198
g4
tp1199
Rp1200
(I1
(I1
tp1201
g11
I00
S'cj\xdc\xe3\x8a\x0b"\xc0'
p1202
tp1203
bag1
(g2
(I0
tp1204
g4
tp1205
Rp1206
(I1
(I1
tp1207
g11
I00
S'\x9c\x94],\xb1\x08"\xc0'
p1208
tp1209
bag1
(g2
(I0
tp1210
g4
tp1211
Rp1212
(I1
(I1
tp1213
g11
I00
S'\x86\xad`\x00g\x08"\xc0'
p1214
tp1215
bag1
(g2
(I0
tp1216
g4
tp1217
Rp1218
(I1
(I1
tp1219
g11
I00
S'\xd3K}\x92_\x08"\xc0'
p1220
tp1221
bag1
(g2
(I0
tp1222
g4
tp1223
Rp1224
(I1
(I1
tp1225
g11
I00
S'r\x0bE\xd4^\x08"\xc0'
p1226
tp1227
bag1
(g2
(I0
tp1228
g4
tp1229
Rp1230
(I1
(I1
tp1231
g11
I00
S'\'W?\xc1^\x08"\xc0'
p1232
tp1233
bag1
(g2
(I0
tp1234
g4
tp1235
Rp1236
(I1
(I1
tp1237
g11
I00
S'\x85^X\xbf^\x08"\xc0'
p1238
tp1239
bag1
(g2
(I0
tp1240
g4
tp1241
Rp1242
(I1
(I1
tp1243
g11
I00
S'\x0f\xac\'\xbf^\x08"\xc0'
p1244
tp1245
bag1
(g2
(I0
tp1246
g4
tp1247
Rp1248
(I1
(I1
tp1249
g11
I00
S'h\xcd"\xbf^\x08"\xc0'
p1250
tp1251
bag1
(g2
(I0
tp1252
g4
tp1253
Rp1254
(I1
(I1
tp1255
g11
I00
S'\xb0\xe2\x18\x14\xef} \xc0'
p1256
tp1257
bag1
(g2
(I0
tp1258
g4
tp1259
Rp1260
(I1
(I1
tp1261
g11
I00
S'h~\x89\x16y5"\xc0'
p1262
tp1263
bag1
(g2
(I0
tp1264
g4
tp1265
Rp1266
(I1
(I1
tp1267
g11
I00
S'\xb5\xd3\x9chd\r"\xc0'
p1268
tp1269
bag1
(g2
(I0
tp1270
g4
tp1271
Rp1272
(I1
(I1
tp1273
g11
I00
S'R\xa5E\xa2\xe0\x08"\xc0'
p1274
tp1275
bag1
(g2
(I0
tp1276
g4
tp1277
Rp1278
(I1
(I1
tp1279
g11
I00
S'4[\xa2\xbfk\x08"\xc0'
p1280
tp1281
bag1
(g2
(I0
tp1282
g4
tp1283
Rp1284
(I1
(I1
tp1285
g11
I00
S'\xee\x05\x05\x0c`\x08"\xc0'
p1286
tp1287
bag1
(g2
(I0
tp1288
g4
tp1289
Rp1290
(I1
(I1
tp1291
g11
I00
S'\n\xb6l\xe0^\x08"\xc0'
p1292
tp1293
bag1
(g2
(I0
tp1294
g4
tp1295
Rp1296
(I1
(I1
tp1297
g11
I00
S'\x80\xfev\xc2^\x08"\xc0'
p1298
tp1299
bag1
(g2
(I0
tp1300
g4
tp1301
Rp1302
(I1
(I1
tp1303
g11
I00
S'\x84\x05x\xbf^\x08"\xc0'
p1304
tp1305
bag1
(g2
(I0
tp1306
g4
tp1307
Rp1308
(I1
(I1
tp1309
g11
I00
S'\x05S+\xbf^\x08"\xc0'
p1310
tp1311
bag1
(g2
(I0
tp1312
g4
tp1313
Rp1314
(I1
(I1
tp1315
g11
I00
S'\x93\xa7#\xbf^\x08"\xc0'
p1316
tp1317
ba.