(lp0
cnumpy.core.multiarray
_reconstruct
p1
(cnumpy
ndarray
p2
(I0
tp3
S'b'
p4
tp5
Rp6
(I1
(L1L
tp7
cnumpy
dtype
p8
(S'f8'
p9
I0
I1
tp10
Rp11
(I3
S'<'
p12
NNNI-1
I-1
I0
tp13
bI00
S'\xa6\xa5=\xdc\xbc\xd68\xc0'
p14
tp15
bag1
(g2
(I0
tp16
g4
tp17
Rp18
(I1
(L1L
tp19
g11
I00
S'\xa6\xa5=\xdc\xbc\xd68\xc0'
p20
tp21
bag1
(g2
(I0
tp22
g4
tp23
Rp24
(I1
(L1L
tp25
g11
I00
S'\xd6\xf7\xe0\x94v$9\xc0'
p26
tp27
bag1
(g2
(I0
tp28
g4
tp29
Rp30
(I1
(L1L
tp31
g11
I00
S'\xf2\xf5\xaf\x92\x05\xe18\xc0'
p32
tp33
bag1
(g2
(I0
tp34
g4
tp35
Rp36
(I1
(L1L
tp37
g11
I00
S'`UF\x00u\xbf8\xc0'
p38
tp39
bag1
(g2
(I0
tp40
g4
tp41
Rp42
(I1
(L1L
tp43
g11
I00
S'\xff3`ui\xad8\xc0'
p44
tp45
bag1
(g2
(I0
tp46
g4
tp47
Rp48
(I1
(L1L
tp49
g11
I00
S'Q\xcav\xc6\x0c\xbe8\xc0'
p50
tp51
bag1
(g2
(I0
tp52
g4
tp53
Rp54
(I1
(L1L
tp55
g11
I00
S'\x8e\xa1\xef\xf1e\xa88\xc0'
p56
tp57
bag1
(g2
(I0
tp58
g4
tp59
Rp60
(I1
(L1L
tp61
g11
I00
S'\xdcs\xf3\x88S\x9d8\xc0'
p62
tp63
bag1
(g2
(I0
tp64
g4
tp65
Rp66
(I1
(L1L
tp67
g11
I00
S'j\xcbN w\xa78\xc0'
p68
tp69
bag1
(g2
(I0
tp70
g4
tp71
Rp72
(I1
(L1L
tp73
g11
I00
S'\xfe\xc4\xfa\x80N\xa88\xc0'
p74
tp75
bag1
(g2
(I0
tp76
g4
tp77
Rp78
(I1
(L1L
tp79
g11
I00
S'b>\x98\xbeF\x9c8\xc0'
p80
tp81
bag1
(g2
(I0
tp82
g4
tp83
Rp84
(I1
(L1L
tp85
g11
I00
S'8\xbf\x8f\x08\xac\x968\xc0'
p86
tp87
bag1
(g2
(I0
tp88
g4
tp89
Rp90
(I1
(L1L
tp91
g11
I00
S'\x8e\x94T\xd4\x91\x998\xc0'
p92
tp93
bag1
(g2
(I0
tp94
g4
tp95
Rp96
(I1
(L1L
tp97
g11
I00
S'\xa6\x0b6\xf2\xd8\x948\xc0'
p98
tp99
bag1
(g2
(I0
tp100
g4
tp101
Rp102
(I1
(L1L
tp103
g11
I00
S'\xe9\xb2q\xad\x03\x998\xc0'
p104
tp105
bag1
(g2
(I0
tp106
g4
tp107
Rp108
(I1
(L1L
tp109
g11
I00
S'\\\xf3)\xa7\x8a\x928\xc0'
p110
tp111
bag1
(g2
(I0
tp112
g4
tp113
Rp114
(I1
(L1L
tp115
g11
I00
S'\x08\xd5\x0cw\x8b\x988\xc0'
p116
tp117
bag1
(g2
(I0
tp118
g4
tp119
Rp120
(I1
(L1L
tp121
g11
I00
S'8[\x9c\xe1\xe0\x938\xc0'
p122
tp123
bag1
(g2
(I0
tp124
g4
tp125
Rp126
(I1
(L1L
tp127
g11
I00
S'\x98\x907\x08\xeb\x978\xc0'
p128
tp129
bag1
(g2
(I0
tp130
g4
tp131
Rp132
(I1
(L1L
tp133
g11
I00
S'\xd6&x(2\x948\xc0'
p134
tp135
bag1
(g2
(I0
tp136
g4
tp137
Rp138
(I1
(L1L
tp139
g11
I00
S'Q|\xa1\x8bm\x928\xc0'
p140
tp141
bag1
(g2
(I0
tp142
g4
tp143
Rp144
(I1
(L1L
tp145
g11
I00
S'\xf4\xb5\xb46\x8d\x938\xc0'
p146
tp147
bag1
(g2
(I0
tp148
g4
tp149
Rp150
(I1
(L1L
tp151
g11
I00
S"\x89\xb6\xe6\x15'\x928\xc0"
p152
tp153
bag1
(g2
(I0
tp154
g4
tp155
Rp156
(I1
(L1L
tp157
g11
I00
S'\x04\xba\x8a\xd5t\x918\xc0'
p158
tp159
bag1
(g2
(I0
tp160
g4
tp161
Rp162
(I1
(L1L
tp163
g11
I00
S'\xa1\x89(p\x1e\x918\xc0'
p164
tp165
bag1
(g2
(I0
tp166
g4
tp167
Rp168
(I1
(L1L
tp169
g11
I00
S'p\x0f@\x8d\xf4\x908\xc0'
p170
tp171
bag1
(g2
(I0
tp172
g4
tp173
Rp174
(I1
(L1L
tp175
g11
I00
S'8-\xd4\xb8\x07\x918\xc0'
p176
tp177
ba.