(lp0
cnumpy.core.multiarray
_reconstruct
p1
(cnumpy
ndarray
p2
(I0
tp3
S'b'
p4
tp5
Rp6
(I1
(L1L
tp7
cnumpy
dtype
p8
(S'f8'
p9
I0
I1
tp10
Rp11
(I3
S'<'
p12
NNNI-1
I-1
I0
tp13
bI00
S'\xe0\xd3\x84\xbc\x93\xf1+\xc0'
p14
tp15
bag1
(g2
(I0
tp16
g4
tp17
Rp18
(I1
(L1L
tp19
g11
I00
S'\xe0\xd3\x84\xbc\x93\xf1+\xc0'
p20
tp21
bag1
(g2
(I0
tp22
g4
tp23
Rp24
(I1
(L1L
tp25
g11
I00
S'N\xd7\x1e\x0e_y*\xc0'
p26
tp27
bag1
(g2
(I0
tp28
g4
tp29
Rp30
(I1
(L1L
tp31
g11
I00
S'\\]\x02y\xfb\xaa)\xc0'
p32
tp33
bag1
(g2
(I0
tp34
g4
tp35
Rp36
(I1
(L1L
tp37
g11
I00
S'U\xa8:\xa8\xef\xaf)\xc0'
p38
tp39
bag1
(g2
(I0
tp40
g4
tp41
Rp42
(I1
(L1L
tp43
g11
I00
S'\xb1i\x9f\xf7K\x99)\xc0'
p44
tp45
bag1
(g2
(I0
tp46
g4
tp47
Rp48
(I1
(L1L
tp49
g11
I00
S'B]Jc\xd0\xab)\xc0'
p50
tp51
bag1
(g2
(I0
tp52
g4
tp53
Rp54
(I1
(L1L
tp55
g11
I00
S'\x9e\x1bH\xefy\xa9)\xc0'
p56
tp57
bag1
(g2
(I0
tp58
g4
tp59
Rp60
(I1
(L1L
tp61
g11
I00
S'4a\xb7KZ\x9f)\xc0'
p62
tp63
bag1
(g2
(I0
tp64
g4
tp65
Rp66
(I1
(L1L
tp67
g11
I00
S'\xf2R\x05\x98z\x92)\xc0'
p68
tp69
bag1
(g2
(I0
tp70
g4
tp71
Rp72
(I1
(L1L
tp73
g11
I00
S'\xf0$Fkg\x8c)\xc0'
p74
tp75
bag1
(g2
(I0
tp76
g4
tp77
Rp78
(I1
(L1L
tp79
g11
I00
S'\xc6\xb9\x19\x97\xe2\x91)\xc0'
p80
tp81
bag1
(g2
(I0
tp82
g4
tp83
Rp84
(I1
(L1L
tp85
g11
I00
S'\xf0!omk\x92)\xc0'
p86
tp87
bag1
(g2
(I0
tp88
g4
tp89
Rp90
(I1
(L1L
tp91
g11
I00
S'8\x92\xbe\xbbv\x92)\xc0'
p92
tp93
ba.