(dp0
S'y1_max'
p1
(lp2
cnumpy.core.multiarray
scalar
p3
(cnumpy
dtype
p4
(S'f8'
p5
I0
I1
tp6
Rp7
(I3
S'<'
p8
NNNI-1
I-1
I0
tp9
bS'\xcb\x1e\xaahh\x8f\xf4@'
p10
tp11
Rp12
ag3
(g7
S'\x94\x8a,\xe5s%\xb5@'
p13
tp14
Rp15
aF1.1269011111111114
asS'y12_max'
p16
(lp17
g3
(g7
S'\xcb\x1e\xaahh\x8f\xf4@'
p18
tp19
Rp20
aF1.1269011111111114
asS'ran_max'
p21
g3
(g7
S'\xb4\x04\xe0\xe3m\xab\x8f@'
p22
tp23
Rp24
sS'y23_max'
p25
(lp26
g3
(g7
S'-\xac\xde~\xae\xc1\xbb@'
p27
tp28
Rp29
asS'y21_max'
p30
(lp31
g3
(g7
S'\x00\x00\x00\x00\x00\x17\xf1@'
p32
tp33
Rp34
asS'y2_min'
p35
(lp36
g3
(g7
S'\x00\x00\x00\x00\x00L\xcd@'
p37
tp38
Rp39
ag3
(g7
S';\xf6h\xbe0D\xac@'
p40
tp41
Rp42
ag3
(g7
S'8/\t\xe8S\x95\x10@'
p43
tp44
Rp45
asS'y11_min'
p46
(lp47
g3
(g7
S'B\xd1\xdah\xa9\x95\xb4@'
p48
tp49
Rp50
asS'g1_max'
p51
(lp52
F-0.2630012797952893
aF-0.17332216488115038
aF-0.12770891580568378
aF-0.10332073656618612
aF-0.09131145514780825
aF0.08355876068376089
aF-0.07983709165142394
asS'y14_max'
p53
(lp54
g3
(g7
S'\xcb\x1e\xaahh\x8f\xf4@'
p55
tp56
Rp57
ag3
(g7
S'\x94\x8a,\xe5s\xf5\xbc@'
p58
tp59
Rp60
asS'y1_min'
p61
(lp62
g3
(g7
S'@\xf0OH\xa6\xbe\xdb@'
p63
tp64
Rp65
ag3
(g7
S'\x84\xa2\xb5\xd1R\x8b\xa9@'
p66
tp67
Rp68
aF1.0432935204081633
asS'y3_max'
p69
(lp70
F1.074335
ag3
(g7
S'\x95(\x12\xed,~\xe0?'
p71
tp72
Rp73
ag3
(g7
S'\x95(\x12\xed,~\xe0?'
p74
tp75
Rp76
asS'y23_min'
p77
(lp78
g3
(g7
S';\xf6h\xbe0D\xac@'
p79
tp80
Rp81
asS'y11_max'
p82
(lp83
g3
(g7
S'\x94\x8a,\xe5s\xf5\xbc@'
p84
tp85
Rp86
asS'y34_max'
p87
(lp88
g3
(g7
S')\xda\x9a\xf72&\xea?'
p89
tp90
Rp91
asS'g3_max'
p92
(lp93
g3
(g7
S'\x10\x13\rR\xf0\xe4\x1f@'
p94
tp95
Rp96
ag3
(g7
S'\xf2\xe4\xf3a7\x01\xe5\xbf'
p97
tp98
Rp99
ag3
(g7
S'X\xc7\xe7\xf0\xa8\xb7\xc8?'
p100
tp101
Rp102
aF0.05326960784313717
asS'y31_min'
p103
(lp104
g3
(g7
S'o\xd2\xa0\x8d\xa4\xb6\x83@'
p105
tp106
Rp107
asS'y2_max'
p108
(lp109
g3
(g7
S'\x00\x00\x00\x00\x00\x17\xf1@'
p110
tp111
Rp112
ag3
(g7
S'-\xac\xde~\xae\xc1\xbb@'
p113
tp114
Rp115
ag3
(g7
S'\xf5b\xbe\x08\xc5\xa1$@'
p116
tp117
Rp118
asS'y32_min'
p119
(lp120
g3
(g7
S'\xd0\xbb\x03\xf48\x87\xac?'
p121
tp122
Rp123
asS'g3_min'
p124
(lp125
g3
(g7
S'\x00\xd5\xb1J\xe9\x99\x9e\xbf'
p126
tp127
Rp128
ag3
(g7
S'\x82-\xd5\xf5\xb2\xcf\xee\xbf'
p129
tp130
Rp131
ag3
(g7
S'X\xc8t\xddA\xdf\xba\xbf'
p132
tp133
Rp134
aF-0.06675245098039229
asS'y14_min'
p135
(lp136
g3
(g7
S'@\xf0OH\xa6\xbe\xdb@'
p137
tp138
Rp139
ag3
(g7
S'B\xd1\xdah\xa9\x95\xb4@'
p140
tp141
Rp142
asS'g2_max'
p143
(lp144
F-0.027200000000000113
asS'g1_min'
p145
(lp146
F-0.4690405676605506
aF-0.3384488829425758
aF-0.2738159523126913
aF-0.23524832568807352
aF-0.20962496283554222
aF0.003166846546310831
aF-0.14810626191196918
asS'y3_min'
p147
(lp148
F0.9519124999999999
ag3
(g7
S'\xd0\xbb\x03\xf48\x87\xac?'
p149
tp150
Rp151
ag3
(g7
S'\xd0\xbb\x03\xf48\x87\xac?'
p152
tp153
Rp154
asS'y34_min'
p155
(lp156
g3
(g7
S'@\xabZ\xf4k\xc1\xe8?'
p157
tp158
Rp159
asS'y32_max'
p160
(lp161
g3
(g7
S'\x95(\x12\xed,~\xe0?'
p162
tp163
Rp164
asS'y21_min'
p165
(lp166
g3
(g7
S'\x00\x00\x00\x00\x00L\xcd@'
p167
tp168
Rp169
asS'y31_max'
p170
(lp171
g3
(g7
S'\x0e\xf4}n\xb5y\xb9@'
p172
tp173
Rp174
asS'ran_min'
p175
g3
(g7
S'DYe\x88.^\x82@'
p176
tp177
Rp178
sS'y12_min'
p179
(lp180
g3
(g7
S'@\xf0OH\xa6\xbe\xdb@'
p181
tp182
Rp183
aF1.0432935204081633
asS'y24_min'
p184
(lp185
g3
(g7
S'8/\t\xe8S\x95\x10@'
p186
tp187
Rp188
asS'g2_min'
p189
(lp190
F-0.07680000000000009
asS'y24_max'
p191
(lp192
g3
(g7
S'\xf5b\xbe\x08\xc5\xa1$@'
p193
tp194
Rp195
as.