(dp0
S'g_1'
p1
(lp2
I3
aI3
aI2
aI4
aI3
asS'y_3'
p3
(lp4
I1
aI1
aI3
aI2
aI1
aI2
asS'y_2'
p5
(lp6
I2
aI3
aI2
aI1
aI1
aI2
asS'y_1'
p7
(lp8
I3
aI2
aI1
aI2
aI2
aI2
asS'g_2'
p9
(lp10
I1
aI1
aI1
aI1
aI1
asS'y_12'
p11
(lp12
I2
aI1
aI1
aI1
aI2
aI1
asS'y_11'
p13
(lp14
I1
aI1
aI1
aI1
aI1
aI1
asS'y_23'
p15
(lp16
I1
aI1
aI1
aI1
aI1
aI1
asS'g_3'
p17
(lp18
I2
aI3
aI1
aI3
aI1
asS'y_14'
p19
(lp20
I2
aI1
aI1
aI2
aI1
aI2
asS'y_31'
p21
(lp22
I1
aI1
aI1
aI1
aI1
aI1
asS'y_24'
p23
(lp24
I1
aI1
aI1
aI1
aI1
aI1
asS'y_32'
p25
(lp26
I1
aI1
aI1
aI1
aI1
aI1
asS'y_34'
p27
(lp28
I1
aI1
aI1
aI1
aI1
aI1
asS'y_21'
p29
(lp30
I1
aI1
aI1
aI1
aI1
aI1
as.