((lp0
(lp1
F0.6329811250742071
aF0.9729737783637379
aF0.060286469289695166
aF0.8350724795378007
aF0.41915941960800795
aa(lp2
F0.791942926367063
aF0.040887802173217636
aF0.8742822492334473
aF0.8287707465197724
aF0.925600049848675
aa(lp3
F0.28136779305899595
aF0.5005823160206476
aF0.9782583653147209
aF0.5547723178129828
aF0.611495357806237
aa(lp4
(lp5
F0.07628982427439357
aF0.8538333318059667
aF0.3441218647627643
aF0.16614205234559176
aF0.5832475518331138
aag5
ag5
a(lp6
(lp7
F0.10888066146961461
aF0.23830254233958736
aF0.8070838998005824
aF0.6383018477729159
aF0.311456641626643
aa(lp8
F0.826205165044902
aF0.7323893454379021
aF0.48493485082271737
aF0.9078367273956056
aF0.4145755961561005
aa(lp9
F0.032131538897771206
aF0.42724443489897035
aF0.22413087173116553
aF0.9308695889891639
aF0.832693000539533
aatp10
.