(dp0
S'y1_max'
p1
(lp2
cnumpy.core._multiarray_umath
scalar
p3
(cnumpy
dtype
p4
(S'f8'
p5
I0
I1
tp6
Rp7
(I3
S'<'
p8
NNNI-1
I-1
I0
tp9
bS'\x92Z3i\x07\xac\x02A'
p10
tp11
Rp12
ag3
(g7
S'Tm\x1c\x1e\xf4z\xbc@'
p13
tp14
Rp15
aF1.1242624789527358
asS'y12_max'
p16
(lp17
g3
(g7
S'\x92Z3i\x07\xac\x02A'
p18
tp19
Rp20
aF1.1242624789527358
asS'ran_max'
p21
g3
(g7
S'\xe6=dk\xf7\xf3\x91@'
p22
tp23
Rp24
sS'y23_max'
p25
(lp26
g3
(g7
S'\x86\xf9`\xea\xc1\xce\xad@'
p27
tp28
Rp29
asS'y21_max'
p30
(lp31
g3
(g7
S'\x00\x00\x00\x00\x80%\xde@'
p32
tp33
Rp34
asS'y2_min'
p35
(lp36
g3
(g7
S'\xcd\xcc\xcc\xcc,\xb4\xd1@'
p37
tp38
Rp39
ag3
(g7
S'\xa2\x19\xf9\xf7\xd8[\xa7@'
p40
tp41
Rp42
ag3
(g7
S'\xe5LL\xb7\x84\x98\x13@'
p43
tp44
Rp45
asS'y11_min'
p46
(lp47
g3
(g7
S'%{\xd2\xe8\xe4\xb4\xb4@'
p48
tp49
Rp50
asS'g1_max'
p51
(lp52
F-0.266965850727092
aF-0.18480599880658444
aF-0.13895099411514944
aF-0.11304281567293972
aF-0.10018263036937713
aF0.08426247895273575
aF-0.08349302960761418
asS'y14_max'
p53
(lp54
g3
(g7
S'\x92Z3i\x07\xac\x02A'
p55
tp56
Rp57
ag3
(g7
S'\xaa6\x0e\x0fz%\xc2@'
p58
tp59
Rp60
asS'y1_min'
p61
(lp62
g3
(g7
S'\x7f\xce\xe8\xe6\xf1(\xdc@'
p63
tp64
Rp65
ag3
(g7
S'J\xf6\xa4\xd1\xc9\xc9\xa9@'
p66
tp67
Rp68
aF1.0434930296076141
asS'y3_max'
p69
(lp70
F1.074335
ag3
(g7
S'\x95(\x12\xed,~\xe0?'
p71
tp72
Rp73
ag3
(g7
S'\x95(\x12\xed,~\xe0?'
p74
tp75
Rp76
asS'y23_min'
p77
(lp78
g3
(g7
S'\xa2\x19\xf9\xf7\xd8[\xa7@'
p79
tp80
Rp81
asS'y11_max'
p82
(lp83
g3
(g7
S'\xaa6\x0e\x0fz%\xc2@'
p84
tp85
Rp86
asS'y34_max'
p87
(lp88
g3
(g7
S'\x99M\x7f)qh\xeb?'
p89
tp90
Rp91
asS'g3_max'
p92
(lp93
g3
(g7
S'<#\xcdX\xb8\xf5\xdb?'
p94
tp95
Rp96
ag3
(g7
S'k\xd7\xed\x12\xd3\x81\xef\xbf'
p97
tp98
Rp99
ag3
(g7
S'p\x00:\xf2>\x02\xd1?'
p100
tp101
Rp102
aF0.05433500000000002
asS'y31_min'
p103
(lp104
g3
(g7
S'?\x15O\xe7my\x86@'
p105
tp106
Rp107
asS'y2_max'
p108
(lp109
g3
(g7
S'\x00\x00\x00\x00\x80%\xde@'
p110
tp111
Rp112
ag3
(g7
S'\x86\xf9`\xea\xc1\xce\xad@'
p113
tp114
Rp115
ag3
(g7
S'\xcf\x10T0<\xa6$@'
p116
tp117
Rp118
asS'y32_min'
p119
(lp120
g3
(g7
S'\x0es\xcb\x9c\x1e)\xb0?'
p121
tp122
Rp123
asS'g3_min'
p124
(lp125
g3
(g7
S'@%\x8aD;\x8b\x8f\xbf'
p126
tp127
Rp128
ag3
(g7
S'\xcfH3\x16n\xfd\xf6\xbf'
p129
tp130
Rp131
ag3
(g7
S'\xf0\xea:1\xdf\xc4\xb9\xbf'
p132
tp133
Rp134
aF-0.06808750000000008
asS'y14_min'
p135
(lp136
g3
(g7
S'\x7f\xce\xe8\xe6\xf1(\xdc@'
p137
tp138
Rp139
ag3
(g7
S'%{\xd2\xe8\xe4\xb4\xb4@'
p140
tp141
Rp142
asS'g2_max'
p143
(lp144
F0.006960000000000077
asS'g1_min'
p145
(lp146
F-0.6617694365473368
aF-0.4619663882765215
aF-0.3655198276742524
aF-0.3087574796434954
aF-0.27137657609407595
aF0.0034930296076141065
aF-0.16426247895273582
asS'y3_min'
p147
(lp148
F0.9519124999999999
ag3
(g7
S'\x0es\xcb\x9c\x1e)\xb0?'
p149
tp150
Rp151
ag3
(g7
S'\x0es\xcb\x9c\x1e)\xb0?'
p152
tp153
Rp154
asS'y34_min'
p155
(lp156
g3
(g7
S'm$\xc7\x9e\x99\x04\xe9?'
p157
tp158
Rp159
asS'y32_max'
p160
(lp161
g3
(g7
S'\x95(\x12\xed,~\xe0?'
p162
tp163
Rp164
asS'y21_min'
p165
(lp166
g3
(g7
S'\xcd\xcc\xcc\xcc,\xb4\xd1@'
p167
tp168
Rp169
asS'y31_max'
p170
(lp171
g3
(g7
S'\x0e\xf4}n\xb5y\xb9@'
p172
tp173
Rp174
asS'ran_min'
p175
g3
(g7
S'\xd2kv\x18\xc9\xf6\x82@'
p176
tp177
Rp178
sS'y12_min'
p179
(lp180
g3
(g7
S'@\xf0OH\xa6\xbe\xdb@'
p181
tp182
Rp183
aF1.0434930296076141
asS'y24_min'
p184
(lp185
g3
(g7
S'\xe5LL\xb7\x84\x98\x13@'
p186
tp187
Rp188
asS'g2_min'
p189
(lp190
F-0.0759624000000001
asS'y24_max'
p191
(lp192
g3
(g7
S'\xcf\x10T0<\xa6$@'
p193
tp194
Rp195
as.