ccopy_reg
_reconstructor
p0
(cpandas.core.frame
DataFrame
p1
c__builtin__
object
p2
Ntp3
Rp4
(dp5
S'_metadata'
p6
(lp7
sS'_typ'
p8
S'dataframe'
p9
sS'_data'
p10
g0
(cpandas.core.internals.managers
BlockManager
p11
g2
Ntp12
Rp13
((lp14
cpandas.core.indexes.base
_new_Index
p15
(cpandas.core.indexes.base
Index
p16
(dp17
S'data'
p18
cnumpy.core._multiarray_umath
_reconstruct
p19
(cnumpy
ndarray
p20
(I0
tp21
S'b'
p22
tp23
Rp24
(I1
(I0
tp25
cnumpy
dtype
p26
(S'O8'
p27
I0
I1
tp28
Rp29
(I3
S'|'
p30
NNNI-1
I-1
I63
tp31
bI00
(lp32
tp33
bsS'name'
p34
Nstp35
Rp36
ag15
(g16
(dp37
g18
g19
(g20
(I0
tp38
g22
tp39
Rp40
(I1
(I0
tp41
g29
I00
(lp42
tp43
bsg34
Nstp44
Rp45
a(lp46
(lp47
(dp48
S'0.14.1'
p49
(dp50
S'axes'
p51
g14
sS'blocks'
p52
(lp53
sstp54
bsb.