(lp0
cnumpy.core._multiarray_umath
_reconstruct
p1
(cnumpy
ndarray
p2
(I0
tp3
S'b'
p4
tp5
Rp6
(I1
(I1
tp7
cnumpy
dtype
p8
(S'f8'
p9
I0
I1
tp10
Rp11
(I3
S'<'
p12
NNNI-1
I-1
I0
tp13
bI00
S'\xd5\xa6\xa4\xf4\xfd\xc5#\xc0'
p14
tp15
bag1
(g2
(I0
tp16
g4
tp17
Rp18
(I1
(I1
tp19
g11
I00
S'\xd5\xa6\xa4\xf4\xfd\xc5#\xc0'
p20
tp21
bag1
(g2
(I0
tp22
g4
tp23
Rp24
(I1
(I1
tp25
g11
I00
S'GT\xe0@\x045%\xc0'
p26
tp27
bag1
(g2
(I0
tp28
g4
tp29
Rp30
(I1
(I1
tp31
g11
I00
S'Q`r\xf4\xdd\xec$\xc0'
p32
tp33
bag1
(g2
(I0
tp34
g4
tp35
Rp36
(I1
(I1
tp37
g11
I00
S'\xd1\xa2H\x8a\xba\x8f$\xc0'
p38
tp39
bag1
(g2
(I0
tp40
g4
tp41
Rp42
(I1
(I1
tp43
g11
I00
S'\x96H\xda\xe2\xad[$\xc0'
p44
tp45
bag1
(g2
(I0
tp46
g4
tp47
Rp48
(I1
(I1
tp49
g11
I00
S'\xdd\xc0\xe2\xc6\x19@$\xc0'
p50
tp51
bag1
(g2
(I0
tp52
g4
tp53
Rp54
(I1
(I1
tp55
g11
I00
S'\x18\xa2\xd8\x16\x96R$\xc0'
p56
tp57
bag1
(g2
(I0
tp58
g4
tp59
Rp60
(I1
(I1
tp61
g11
I00
S'\xbda\xe2\xcf\x14:$\xc0'
p62
tp63
bag1
(g2
(I0
tp64
g4
tp65
Rp66
(I1
(I1
tp67
g11
I00
S'%\xdfp\xa2J,$\xc0'
p68
tp69
bag1
(g2
(I0
tp70
g4
tp71
Rp72
(I1
(I1
tp73
g11
I00
S'T\xbf\x982[%$\xc0'
p74
tp75
bag1
(g2
(I0
tp76
g4
tp77
Rp78
(I1
(I1
tp79
g11
I00
S'"\x82y\xeb\xde!$\xc0'
p80
tp81
bag1
(g2
(I0
tp82
g4
tp83
Rp84
(I1
(I1
tp85
g11
I00
S'\t\xf7 #\xb4#$\xc0'
p86
tp87
bag1
(g2
(I0
tp88
g4
tp89
Rp90
(I1
(I1
tp91
g11
I00
S'O\xf0\x1d\xba\x0c!$\xc0'
p92
tp93
bag1
(g2
(I0
tp94
g4
tp95
Rp96
(I1
(I1
tp97
g11
I00
S'BYpu\xc0\x1f$\xc0'
p98
tp99
bag1
(g2
(I0
tp100
g4
tp101
Rp102
(I1
(I1
tp103
g11
I00
S'*m\xe6\xce] $\xc0'
p104
tp105
bag1
(g2
(I0
tp106
g4
tp107
Rp108
(I1
(I1
tp109
g11
I00
S'\xe8Y\xc5ch\x1f$\xc0'
p110
tp111
bag1
(g2
(I0
tp112
g4
tp113
Rp114
(I1
(I1
tp115
g11
I00
S'\xb8HT\x90\xee\x1e$\xc0'
p116
tp117
bag1
(g2
(I0
tp118
g4
tp119
Rp120
(I1
(I1
tp121
g11
I00
S'M\xa9\x0c{&\x1f$\xc0'
p122
tp123
ba.